; Function Attrs: mustprogress nofree norecurse nosync nounwind willreturn memory(argmem: readwrite) uwtable
define noundef range(i64 0, -9223372036854775808) i64 @_ZN5faiss25SplitMix64RandomGenerator10rand_int64Ev(ptr noundef nonnull align 8 captures(none) dereferenceable(8) %0) local_unnamed_addr #4 align 2 {
  %2 = load i64, ptr %0, align 8, !tbaa !14
  %3 = add i64 %2, -7046029254386353131
  store i64 %3, ptr %0, align 8, !tbaa !14
  %4 = lshr i64 %3, 30
  %5 = xor i64 %4, %3
  %6 = mul i64 %5, -4658895280553007687
  %7 = lshr i64 %6, 27
  %8 = xor i64 %7, %6
  %9 = mul i64 %8, -7723592293110705685
  %10 = lshr i64 %9, 31
  %.masked = and i64 %9, 9223372036854775807
  %11 = xor i64 %10, %.masked
  ret i64 %11
}